target datalayout = "e-m:e-p270:32:32-p271:32:32-p272:64:64-i64:64-i128:128-f80:128-n8:16:32:64-S128"
target triple = "x86_64-pc-linux-gnu"

%struct.object_id = type { [32 x i8], i32 }
%struct.patch = type { ptr, ptr, ptr, i32, i32, i32, i32, i32, i32, i32, i32, i32, i32, i16, ptr, ptr, i64, [65 x i8], [65 x i8], ptr, [3 x %struct.object_id] }
%struct.fragment = type { i64, i64, i64, i64, i64, i64, ptr, i8, i32, i32, ptr }

; Function Attrs: nounwind uwtable
define internal void @free_fragment_list(ptr noundef %0) #0 {
  %2 = alloca ptr, align 8
  %3 = alloca ptr, align 8
  store ptr %0, ptr %2, align 8, !tbaa !69
  br label %4

4:                                                ; preds = %21, %1
  %5 = load ptr, ptr %2, align 8, !tbaa !69
  %6 = icmp ne ptr %5, null
  br i1 %6, label %7, label %24

7:                                                ; preds = %4
  call void @llvm.lifetime.start.p0(i64 8, ptr %3) #12
  %8 = load ptr, ptr %2, align 8, !tbaa !69
  %9 = getelementptr inbounds nuw %struct.fragment, ptr %8, i32 0, i32 10
  %10 = load ptr, ptr %9, align 8, !tbaa !70
  store ptr %10, ptr %3, align 8, !tbaa !69
  %11 = load ptr, ptr %2, align 8, !tbaa !69
  %12 = getelementptr inbounds nuw %struct.fragment, ptr %11, i32 0, i32 7
  %13 = load i8, ptr %12, align 8
  %14 = and i8 %13, 1
  %15 = zext i8 %14 to i32
  %16 = icmp ne i32 %15, 0
  br i1 %16, label %17, label %21

17:                                               ; preds = %7
  %18 = load ptr, ptr %2, align 8, !tbaa !69
  %19 = getelementptr inbounds nuw %struct.fragment, ptr %18, i32 0, i32 6
  %20 = load ptr, ptr %19, align 8, !tbaa !72
  call void @free(ptr noundef %20) #12
  br label %21

21:                                               ; preds = %17, %7
  %22 = load ptr, ptr %2, align 8, !tbaa !69
  call void @free(ptr noundef %22) #12
  %23 = load ptr, ptr %3, align 8, !tbaa !69
  store ptr %23, ptr %2, align 8, !tbaa !69
  call void @llvm.lifetime.end.p0(i64 8, ptr %3) #12
  br label %4, !llvm.loop !73

24:                                               ; preds = %4
  ret void
}

; Function Attrs: nounwind uwtable
define dso_local void @release_patch(ptr noundef %0) #0 {
  %2 = alloca ptr, align 8
  store ptr %0, ptr %2, align 8, !tbaa !60
  %3 = load ptr, ptr %2, align 8, !tbaa !60
  %4 = getelementptr inbounds nuw %struct.patch, ptr %3, i32 0, i32 14
  %5 = load ptr, ptr %4, align 8, !tbaa !62
  call void @free_fragment_list(ptr noundef %5)
  %6 = load ptr, ptr %2, align 8, !tbaa !60
  %7 = getelementptr inbounds nuw %struct.patch, ptr %6, i32 0, i32 2
  %8 = load ptr, ptr %7, align 8, !tbaa !65
  call void @free(ptr noundef %8) #12
  %9 = load ptr, ptr %2, align 8, !tbaa !60
  %10 = getelementptr inbounds nuw %struct.patch, ptr %9, i32 0, i32 1
  %11 = load ptr, ptr %10, align 8, !tbaa !66
  call void @free(ptr noundef %11) #12
  %12 = load ptr, ptr %2, align 8, !tbaa !60
  %13 = getelementptr inbounds nuw %struct.patch, ptr %12, i32 0, i32 0
  %14 = load ptr, ptr %13, align 8, !tbaa !67
  call void @free(ptr noundef %14) #12
  %15 = load ptr, ptr %2, align 8, !tbaa !60
  %16 = getelementptr inbounds nuw %struct.patch, ptr %15, i32 0, i32 15
  %17 = load ptr, ptr %16, align 8, !tbaa !68
  call void @free(ptr noundef %17) #12
  ret void
}