; Function Attrs: nounwind uwtable
define dso_local void @release_patch(ptr noundef readonly captures(none) %0) local_unnamed_addr #0 {
  %2 = getelementptr inbounds nuw i8, ptr %0, i64 72
  %3 = load ptr, ptr %2, align 8, !tbaa !54
  %.not7.i = icmp eq ptr %3, null
  br i1 %.not7.i, label %free_fragment_list.exit, label %.lr.ph.i

.lr.ph.i:                                         ; preds = %1, %12
  %.08.i = phi ptr [ %5, %12 ], [ %3, %1 ]
  %4 = getelementptr inbounds nuw i8, ptr %.08.i, i64 72
  %5 = load ptr, ptr %4, align 8, !tbaa !58
  %6 = getelementptr inbounds nuw i8, ptr %.08.i, i64 56
  %7 = load i8, ptr %6, align 8
  %8 = and i8 %7, 1
  %.not6.i = icmp eq i8 %8, 0
  br i1 %.not6.i, label %12, label %9

9:                                                ; preds = %.lr.ph.i
  %10 = getelementptr inbounds nuw i8, ptr %.08.i, i64 48
  %11 = load ptr, ptr %10, align 8, !tbaa !60
  tail call void @free(ptr noundef %11) #21
  br label %12

12:                                               ; preds = %9, %.lr.ph.i
  tail call void @free(ptr noundef nonnull %.08.i) #21
  %.not.i = icmp eq ptr %5, null
  br i1 %.not.i, label %free_fragment_list.exit, label %.lr.ph.i, !llvm.loop !61

free_fragment_list.exit:                          ; preds = %12, %1
  %13 = getelementptr inbounds nuw i8, ptr %0, i64 16
  %14 = load ptr, ptr %13, align 8, !tbaa !63
  tail call void @free(ptr noundef %14) #21
  %15 = getelementptr inbounds nuw i8, ptr %0, i64 8
  %16 = load ptr, ptr %15, align 8, !tbaa !64
  tail call void @free(ptr noundef %16) #21
  %17 = load ptr, ptr %0, align 8, !tbaa !65
  tail call void @free(ptr noundef %17) #21
  %18 = getelementptr inbounds nuw i8, ptr %0, i64 80
  %19 = load ptr, ptr %18, align 8, !tbaa !66
  tail call void @free(ptr noundef %19) #21
  ret void
}